target datalayout = "e-m:e-p270:32:32-p271:32:32-p272:64:64-i64:64-i128:128-f80:128-n8:16:32:64-S128"
target triple = "x86_64-pc-linux-gnu"

%struct.mempool_s = type { i64, i64, i64, i64, i8, ptr, ptr, ptr, ptr, %struct.sq_queue_s, %struct.sq_queue_s, %struct.sq_queue_s, i64, i8, %struct.sem_s, %struct.mempool_procfs_entry_s }
%struct.sq_queue_s = type { ptr, ptr }
%struct.sem_s = type { i16, i8, %struct.dq_queue_s, ptr }
%struct.dq_queue_s = type { ptr, ptr }
%struct.mempool_procfs_entry_s = type { ptr, ptr }
%struct.sq_entry_s = type { ptr }

; Function Attrs: nounwind uwtable
define internal void @mempool_add_queue(ptr noundef %0, ptr noundef %1, i64 noundef %2, i64 noundef %3) #0 {
  %5 = alloca ptr, align 8
  %6 = alloca ptr, align 8
  %7 = alloca i64, align 8
  %8 = alloca i64, align 8
  %9 = alloca ptr, align 8
  store ptr %0, ptr %5, align 8
  store ptr %1, ptr %6, align 8
  store i64 %2, ptr %7, align 8
  store i64 %3, ptr %8, align 8
  br label %10

10:                                               ; preds = %38, %4
  %11 = load i64, ptr %7, align 8
  %12 = add i64 %11, -1
  store i64 %12, ptr %7, align 8
  %13 = icmp ugt i64 %11, 0
  br i1 %13, label %14, label %39

14:                                               ; preds = %10
  br label %15

15:                                               ; preds = %14
  %16 = load ptr, ptr %6, align 8
  %17 = load i64, ptr %8, align 8
  %18 = load i64, ptr %7, align 8
  %19 = mul i64 %17, %18
  %20 = getelementptr inbounds i8, ptr %16, i64 %19
  store ptr %20, ptr %9, align 8
  %21 = load ptr, ptr %5, align 8
  %22 = getelementptr inbounds %struct.sq_queue_s, ptr %21, i32 0, i32 0
  %23 = load ptr, ptr %22, align 8
  %24 = load ptr, ptr %9, align 8
  %25 = getelementptr inbounds %struct.sq_entry_s, ptr %24, i32 0, i32 0
  store ptr %23, ptr %25, align 8
  %26 = load ptr, ptr %5, align 8
  %27 = getelementptr inbounds %struct.sq_queue_s, ptr %26, i32 0, i32 0
  %28 = load ptr, ptr %27, align 8
  %29 = icmp ne ptr %28, null
  br i1 %29, label %34, label %30

30:                                               ; preds = %15
  %31 = load ptr, ptr %9, align 8
  %32 = load ptr, ptr %5, align 8
  %33 = getelementptr inbounds %struct.sq_queue_s, ptr %32, i32 0, i32 1
  store ptr %31, ptr %33, align 8
  br label %34

34:                                               ; preds = %30, %15
  %35 = load ptr, ptr %9, align 8
  %36 = load ptr, ptr %5, align 8
  %37 = getelementptr inbounds %struct.sq_queue_s, ptr %36, i32 0, i32 0
  store ptr %35, ptr %37, align 8
  br label %38

38:                                               ; preds = %34
  br label %10, !llvm.loop !6

39:                                               ; preds = %10
  ret void
}

; Function Attrs: nounwind uwtable
define i32 @mempool_init(ptr noundef %0, ptr noundef %1) #0 {
  %3 = alloca i32, align 4
  %4 = alloca ptr, align 8
  %5 = alloca ptr, align 8
  %6 = alloca i64, align 8
  %7 = alloca i64, align 8
  %8 = alloca i64, align 8
  %9 = alloca i64, align 8
  %10 = alloca i64, align 8
  %11 = alloca ptr, align 8
  %12 = alloca ptr, align 8
  store ptr %0, ptr %4, align 8
  store ptr %1, ptr %5, align 8
  %13 = load ptr, ptr %4, align 8
  %14 = getelementptr inbounds %struct.mempool_s, ptr %13, i32 0, i32 0
  %15 = load i64, ptr %14, align 8
  store i64 %15, ptr %6, align 8
  br label %16

16:                                               ; preds = %2
  %17 = load ptr, ptr %4, align 8
  %18 = getelementptr inbounds %struct.mempool_s, ptr %17, i32 0, i32 9
  %19 = getelementptr inbounds %struct.sq_queue_s, ptr %18, i32 0, i32 0
  store ptr null, ptr %19, align 8
  %20 = load ptr, ptr %4, align 8
  %21 = getelementptr inbounds %struct.mempool_s, ptr %20, i32 0, i32 9
  %22 = getelementptr inbounds %struct.sq_queue_s, ptr %21, i32 0, i32 1
  store ptr null, ptr %22, align 8
  br label %23

23:                                               ; preds = %16
  br label %24

24:                                               ; preds = %23
  %25 = load ptr, ptr %4, align 8
  %26 = getelementptr inbounds %struct.mempool_s, ptr %25, i32 0, i32 10
  %27 = getelementptr inbounds %struct.sq_queue_s, ptr %26, i32 0, i32 0
  store ptr null, ptr %27, align 8
  %28 = load ptr, ptr %4, align 8
  %29 = getelementptr inbounds %struct.mempool_s, ptr %28, i32 0, i32 10
  %30 = getelementptr inbounds %struct.sq_queue_s, ptr %29, i32 0, i32 1
  store ptr null, ptr %30, align 8
  br label %31

31:                                               ; preds = %24
  br label %32

32:                                               ; preds = %31
  %33 = load ptr, ptr %4, align 8
  %34 = getelementptr inbounds %struct.mempool_s, ptr %33, i32 0, i32 11
  %35 = getelementptr inbounds %struct.sq_queue_s, ptr %34, i32 0, i32 0
  store ptr null, ptr %35, align 8
  %36 = load ptr, ptr %4, align 8
  %37 = getelementptr inbounds %struct.mempool_s, ptr %36, i32 0, i32 11
  %38 = getelementptr inbounds %struct.sq_queue_s, ptr %37, i32 0, i32 1
  store ptr null, ptr %38, align 8
  br label %39

39:                                               ; preds = %32
  %40 = load ptr, ptr %4, align 8
  %41 = getelementptr inbounds %struct.mempool_s, ptr %40, i32 0, i32 12
  store i64 0, ptr %41, align 8
  %42 = load ptr, ptr %4, align 8
  %43 = getelementptr inbounds %struct.mempool_s, ptr %42, i32 0, i32 2
  %44 = load i64, ptr %43, align 8
  %45 = load i64, ptr %6, align 8
  %46 = icmp uge i64 %44, %45
  br i1 %46, label %47, label %77

47:                                               ; preds = %39
  %48 = load ptr, ptr %4, align 8
  %49 = getelementptr inbounds %struct.mempool_s, ptr %48, i32 0, i32 2
  %50 = load i64, ptr %49, align 8
  %51 = load i64, ptr %6, align 8
  %52 = udiv i64 %50, %51
  store i64 %52, ptr %7, align 8
  %53 = load i64, ptr %7, align 8
  %54 = load i64, ptr %6, align 8
  %55 = mul i64 %53, %54
  store i64 %55, ptr %8, align 8
  %56 = load ptr, ptr %4, align 8
  %57 = getelementptr inbounds %struct.mempool_s, ptr %56, i32 0, i32 6
  %58 = load ptr, ptr %57, align 8
  %59 = load ptr, ptr %4, align 8
  %60 = load i64, ptr %8, align 8
  %61 = call ptr %58(ptr noundef %59, i64 noundef %60)
  %62 = load ptr, ptr %4, align 8
  %63 = getelementptr inbounds %struct.mempool_s, ptr %62, i32 0, i32 8
  store ptr %61, ptr %63, align 8
  %64 = load ptr, ptr %4, align 8
  %65 = getelementptr inbounds %struct.mempool_s, ptr %64, i32 0, i32 8
  %66 = load ptr, ptr %65, align 8
  %67 = icmp eq ptr %66, null
  br i1 %67, label %68, label %69

68:                                               ; preds = %47
  store i32 -12, ptr %3, align 4
  br label %183

69:                                               ; preds = %47
  %70 = load ptr, ptr %4, align 8
  %71 = getelementptr inbounds %struct.mempool_s, ptr %70, i32 0, i32 10
  %72 = load ptr, ptr %4, align 8
  %73 = getelementptr inbounds %struct.mempool_s, ptr %72, i32 0, i32 8
  %74 = load ptr, ptr %73, align 8
  %75 = load i64, ptr %7, align 8
  %76 = load i64, ptr %6, align 8
  call void @mempool_add_queue(ptr noundef %71, ptr noundef %74, i64 noundef %75, i64 noundef %76)
  br label %80

77:                                               ; preds = %39
  %78 = load ptr, ptr %4, align 8
  %79 = getelementptr inbounds %struct.mempool_s, ptr %78, i32 0, i32 8
  store ptr null, ptr %79, align 8
  br label %80

80:                                               ; preds = %77, %69
  %81 = load ptr, ptr %4, align 8
  %82 = getelementptr inbounds %struct.mempool_s, ptr %81, i32 0, i32 1
  %83 = load i64, ptr %82, align 8
  %84 = load i64, ptr %6, align 8
  %85 = add i64 %84, 8
  %86 = icmp uge i64 %83, %85
  br i1 %86, label %87, label %161

87:                                               ; preds = %80
  %88 = load ptr, ptr %4, align 8
  %89 = getelementptr inbounds %struct.mempool_s, ptr %88, i32 0, i32 1
  %90 = load i64, ptr %89, align 8
  %91 = sub i64 %90, 8
  %92 = load i64, ptr %6, align 8
  %93 = udiv i64 %91, %92
  store i64 %93, ptr %9, align 8
  %94 = load i64, ptr %9, align 8
  %95 = load i64, ptr %6, align 8
  %96 = mul i64 %94, %95
  %97 = add i64 %96, 8
  store i64 %97, ptr %10, align 8
  %98 = load ptr, ptr %4, align 8
  %99 = getelementptr inbounds %struct.mempool_s, ptr %98, i32 0, i32 6
  %100 = load ptr, ptr %99, align 8
  %101 = load ptr, ptr %4, align 8
  %102 = load i64, ptr %10, align 8
  %103 = call ptr %100(ptr noundef %101, i64 noundef %102)
  store ptr %103, ptr %11, align 8
  %104 = load ptr, ptr %11, align 8
  %105 = icmp eq ptr %104, null
  br i1 %105, label %106, label %120

106:                                              ; preds = %87
  %107 = load ptr, ptr %4, align 8
  %108 = getelementptr inbounds %struct.mempool_s, ptr %107, i32 0, i32 8
  %109 = load ptr, ptr %108, align 8
  %110 = icmp ne ptr %109, null
  br i1 %110, label %111, label %119

111:                                              ; preds = %106
  %112 = load ptr, ptr %4, align 8
  %113 = getelementptr inbounds %struct.mempool_s, ptr %112, i32 0, i32 7
  %114 = load ptr, ptr %113, align 8
  %115 = load ptr, ptr %4, align 8
  %116 = load ptr, ptr %4, align 8
  %117 = getelementptr inbounds %struct.mempool_s, ptr %116, i32 0, i32 8
  %118 = load ptr, ptr %117, align 8
  call void %114(ptr noundef %115, ptr noundef %118)
  br label %119

119:                                              ; preds = %111, %106
  store i32 -12, ptr %3, align 4
  br label %183

120:                                              ; preds = %87
  %121 = load ptr, ptr %4, align 8
  %122 = getelementptr inbounds %struct.mempool_s, ptr %121, i32 0, i32 9
  %123 = load ptr, ptr %11, align 8
  %124 = load i64, ptr %9, align 8
  %125 = load i64, ptr %6, align 8
  call void @mempool_add_queue(ptr noundef %122, ptr noundef %123, i64 noundef %124, i64 noundef %125)
  br label %126

126:                                              ; preds = %120
  %127 = load ptr, ptr %11, align 8
  %128 = load i64, ptr %9, align 8
  %129 = load i64, ptr %6, align 8
  %130 = mul i64 %128, %129
  %131 = getelementptr inbounds i8, ptr %127, i64 %130
  store ptr %131, ptr %12, align 8
  %132 = load ptr, ptr %12, align 8
  %133 = getelementptr inbounds %struct.sq_entry_s, ptr %132, i32 0, i32 0
  store ptr null, ptr %133, align 8
  %134 = load ptr, ptr %4, align 8
  %135 = getelementptr inbounds %struct.mempool_s, ptr %134, i32 0, i32 11
  %136 = getelementptr inbounds %struct.sq_queue_s, ptr %135, i32 0, i32 0
  %137 = load ptr, ptr %136, align 8
  %138 = icmp ne ptr %137, null
  br i1 %138, label %148, label %139

139:                                              ; preds = %126
  %140 = load ptr, ptr %12, align 8
  %141 = load ptr, ptr %4, align 8
  %142 = getelementptr inbounds %struct.mempool_s, ptr %141, i32 0, i32 11
  %143 = getelementptr inbounds %struct.sq_queue_s, ptr %142, i32 0, i32 0
  store ptr %140, ptr %143, align 8
  %144 = load ptr, ptr %12, align 8
  %145 = load ptr, ptr %4, align 8
  %146 = getelementptr inbounds %struct.mempool_s, ptr %145, i32 0, i32 11
  %147 = getelementptr inbounds %struct.sq_queue_s, ptr %146, i32 0, i32 1
  store ptr %144, ptr %147, align 8
  br label %159

148:                                              ; preds = %126
  %149 = load ptr, ptr %12, align 8
  %150 = load ptr, ptr %4, align 8
  %151 = getelementptr inbounds %struct.mempool_s, ptr %150, i32 0, i32 11
  %152 = getelementptr inbounds %struct.sq_queue_s, ptr %151, i32 0, i32 1
  %153 = load ptr, ptr %152, align 8
  %154 = getelementptr inbounds %struct.sq_entry_s, ptr %153, i32 0, i32 0
  store ptr %149, ptr %154, align 8
  %155 = load ptr, ptr %12, align 8
  %156 = load ptr, ptr %4, align 8
  %157 = getelementptr inbounds %struct.mempool_s, ptr %156, i32 0, i32 11
  %158 = getelementptr inbounds %struct.sq_queue_s, ptr %157, i32 0, i32 1
  store ptr %155, ptr %158, align 8
  br label %159

159:                                              ; preds = %148, %139
  br label %160

160:                                              ; preds = %159
  br label %161

161:                                              ; preds = %160, %80
  br label %162

162:                                              ; preds = %161
  %163 = load ptr, ptr %4, align 8
  %164 = getelementptr inbounds %struct.mempool_s, ptr %163, i32 0, i32 13
  store i8 0, ptr %164, align 8
  br label %165

165:                                              ; preds = %162
  %166 = load ptr, ptr %4, align 8
  %167 = getelementptr inbounds %struct.mempool_s, ptr %166, i32 0, i32 4
  %168 = load i8, ptr %167, align 8
  %169 = trunc i8 %168 to i1
  br i1 %169, label %170, label %179

170:                                              ; preds = %165
  %171 = load ptr, ptr %4, align 8
  %172 = getelementptr inbounds %struct.mempool_s, ptr %171, i32 0, i32 3
  %173 = load i64, ptr %172, align 8
  %174 = icmp eq i64 %173, 0
  br i1 %174, label %175, label %179

175:                                              ; preds = %170
  %176 = load ptr, ptr %4, align 8
  %177 = getelementptr inbounds %struct.mempool_s, ptr %176, i32 0, i32 14
  %178 = call i32 @nxsem_init(ptr noundef %177, i32 noundef 0, i32 noundef 0)
  br label %179

179:                                              ; preds = %175, %170, %165
  %180 = load ptr, ptr %4, align 8
  %181 = getelementptr inbounds %struct.mempool_s, ptr %180, i32 0, i32 15
  %182 = load ptr, ptr %5, align 8
  call void @mempool_procfs_register(ptr noundef %181, ptr noundef %182)
  store i32 0, ptr %3, align 4
  br label %183

183:                                              ; preds = %179, %119, %68
  %184 = load i32, ptr %3, align 4
  ret i32 %184
}