; Function Attrs: nounwind uwtable
define range(i32 -12, 1) i32 @mempool_init(ptr noundef initializes((72, 128)) %0, ptr noundef %1) local_unnamed_addr #0 {
  %3 = load i64, ptr %0, align 8
  %4 = getelementptr inbounds nuw i8, ptr %0, i64 72
  %5 = getelementptr inbounds nuw i8, ptr %0, i64 80
  %6 = getelementptr inbounds nuw i8, ptr %0, i64 88
  %7 = getelementptr inbounds nuw i8, ptr %0, i64 96
  %8 = getelementptr inbounds nuw i8, ptr %0, i64 104
  %9 = getelementptr inbounds nuw i8, ptr %0, i64 112
  %10 = getelementptr inbounds nuw i8, ptr %0, i64 16
  tail call void @llvm.memset.p0.i64(ptr noundef nonnull align 8 dereferenceable(56) %4, i8 0, i64 56, i1 false)
  %11 = load i64, ptr %10, align 8
  %.not = icmp ult i64 %11, %3
  br i1 %.not, label %28, label %12

12:                                               ; preds = %2
  %13 = udiv i64 %11, %3
  %14 = mul i64 %13, %3
  %15 = getelementptr inbounds nuw i8, ptr %0, i64 48
  %16 = load ptr, ptr %15, align 8
  %17 = tail call ptr %16(ptr noundef nonnull %0, i64 noundef %14) #4
  %18 = getelementptr inbounds nuw i8, ptr %0, i64 64
  store ptr %17, ptr %18, align 8
  %19 = icmp eq ptr %17, null
  br i1 %19, label %76, label %.lr.ph.i

.lr.ph.i:                                         ; preds = %12
  %.pre.i = load ptr, ptr %6, align 8
  br label %20

20:                                               ; preds = %27, %.lr.ph.i
  %21 = phi ptr [ %.pre.i, %.lr.ph.i ], [ %24, %27 ]
  %.in.i = phi i64 [ %13, %.lr.ph.i ], [ %22, %27 ]
  %22 = add i64 %.in.i, -1
  %23 = mul i64 %22, %3
  %24 = getelementptr inbounds i8, ptr %17, i64 %23
  store ptr %21, ptr %24, align 8
  %25 = load ptr, ptr %6, align 8
  %.not10.i = icmp eq ptr %25, null
  br i1 %.not10.i, label %26, label %27

26:                                               ; preds = %20
  store ptr %24, ptr %7, align 8
  br label %27

27:                                               ; preds = %26, %20
  store ptr %24, ptr %6, align 8
  %.not.i = icmp eq i64 %22, 0
  br i1 %.not.i, label %mempool_add_queue.exit, label %20, !llvm.loop !6

28:                                               ; preds = %2
  %29 = getelementptr inbounds nuw i8, ptr %0, i64 64
  store ptr null, ptr %29, align 8
  br label %mempool_add_queue.exit

mempool_add_queue.exit:                           ; preds = %27, %28
  %30 = getelementptr inbounds nuw i8, ptr %0, i64 8
  %31 = load i64, ptr %30, align 8
  %32 = add i64 %3, 8
  %.not67 = icmp ult i64 %31, %32
  br i1 %.not67, label %62, label %33

33:                                               ; preds = %mempool_add_queue.exit
  %34 = add i64 %31, -8
  %35 = udiv i64 %34, %3
  %36 = mul i64 %35, %3
  %37 = add i64 %36, 8
  %38 = getelementptr inbounds nuw i8, ptr %0, i64 48
  %39 = load ptr, ptr %38, align 8
  %40 = tail call ptr %39(ptr noundef nonnull %0, i64 noundef %37) #4
  %41 = icmp eq ptr %40, null
  br i1 %41, label %42, label %48

42:                                               ; preds = %33
  %43 = getelementptr inbounds nuw i8, ptr %0, i64 64
  %44 = load ptr, ptr %43, align 8
  %.not69 = icmp eq ptr %44, null
  br i1 %.not69, label %76, label %45

45:                                               ; preds = %42
  %46 = getelementptr inbounds nuw i8, ptr %0, i64 56
  %47 = load ptr, ptr %46, align 8
  tail call void %47(ptr noundef nonnull %0, ptr noundef nonnull %44) #4
  br label %76

48:                                               ; preds = %33
  %.not11.i70 = icmp ugt i64 %3, %34
  br i1 %.not11.i70, label %mempool_add_queue.exit76, label %.lr.ph.i71

.lr.ph.i71:                                       ; preds = %48
  %.pre.i72 = load ptr, ptr %4, align 8
  br label %49

49:                                               ; preds = %56, %.lr.ph.i71
  %50 = phi ptr [ %.pre.i72, %.lr.ph.i71 ], [ %53, %56 ]
  %.in.i73 = phi i64 [ %35, %.lr.ph.i71 ], [ %51, %56 ]
  %51 = add i64 %.in.i73, -1
  %52 = mul i64 %51, %3
  %53 = getelementptr inbounds i8, ptr %40, i64 %52
  store ptr %50, ptr %53, align 8
  %54 = load ptr, ptr %4, align 8
  %.not10.i74 = icmp eq ptr %54, null
  br i1 %.not10.i74, label %55, label %56

55:                                               ; preds = %49
  store ptr %53, ptr %5, align 8
  br label %56

56:                                               ; preds = %55, %49
  store ptr %53, ptr %4, align 8
  %.not.i75 = icmp eq i64 %51, 0
  br i1 %.not.i75, label %mempool_add_queue.exit76, label %49, !llvm.loop !6

mempool_add_queue.exit76:                         ; preds = %56, %48
  %57 = getelementptr inbounds i8, ptr %40, i64 %36
  store ptr null, ptr %57, align 8
  %58 = load ptr, ptr %8, align 8
  %.not68 = icmp eq ptr %58, null
  br i1 %.not68, label %59, label %60

59:                                               ; preds = %mempool_add_queue.exit76
  store ptr %57, ptr %8, align 8
  br label %.sink.split

60:                                               ; preds = %mempool_add_queue.exit76
  %61 = load ptr, ptr %9, align 8
  store ptr %57, ptr %61, align 8
  br label %.sink.split

.sink.split:                                      ; preds = %60, %59
  store ptr %57, ptr %9, align 8
  br label %62

62:                                               ; preds = %.sink.split, %mempool_add_queue.exit
  %63 = getelementptr inbounds nuw i8, ptr %0, i64 128
  store i8 0, ptr %63, align 8
  %64 = getelementptr inbounds nuw i8, ptr %0, i64 32
  %65 = load i8, ptr %64, align 8
  %66 = trunc i8 %65 to i1
  br i1 %66, label %67, label %74

67:                                               ; preds = %62
  %68 = getelementptr inbounds nuw i8, ptr %0, i64 24
  %69 = load i64, ptr %68, align 8
  %70 = icmp eq i64 %69, 0
  br i1 %70, label %71, label %74

71:                                               ; preds = %67
  %72 = getelementptr inbounds nuw i8, ptr %0, i64 136
  %73 = tail call i32 @nxsem_init(ptr noundef nonnull %72, i32 noundef 0, i32 noundef 0) #4
  br label %74

74:                                               ; preds = %71, %67, %62
  %75 = getelementptr inbounds nuw i8, ptr %0, i64 168
  tail call void @mempool_procfs_register(ptr noundef nonnull %75, ptr noundef %1) #4
  br label %76

76:                                               ; preds = %42, %45, %12, %74
  %.0 = phi i32 [ 0, %74 ], [ -12, %12 ], [ -12, %45 ], [ -12, %42 ]
  ret i32 %.0
}